target datalayout = "e-m:e-p270:32:32-p271:32:32-p272:64:64-i64:64-i128:128-f80:128-n8:16:32:64-S128"
target triple = "x86_64-pc-linux-gnu"

%"struct.os::Linux::glibc_mallinfo" = type { i64, i64, i64, i64, i64, i64, i64, i64, i64, i64 }
%struct.new_mallinfo = type { i64, i64, i64, i64, i64, i64, i64, i64, i64, i64 }
%struct.old_mallinfo = type { i32, i32, i32, i32, i32, i32, i32, i32, i32, i32 }

@.str.186 = private unnamed_addr constant [34 x i8] c"src/hotspot/os/linux/os_linux.cpp\00", align 1
@g_assert_poison = external global ptr, align 8
@_ZL10g_mallinfo = internal global ptr null, align 8
@_ZL11g_mallinfo2 = internal global ptr null, align 8

; Function Attrs: mustprogress nounwind uwtable
define hidden void @_ZN2os5Linux12get_mallinfoEPNS0_14glibc_mallinfoEPb(ptr noundef %0, ptr noundef %1) #1 align 2 {
  %3 = alloca ptr, align 8
  %4 = alloca ptr, align 8
  %5 = alloca %struct.new_mallinfo, align 8
  %6 = alloca %struct.old_mallinfo, align 4
  store ptr %0, ptr %3, align 8
  store ptr %1, ptr %4, align 8
  %7 = load ptr, ptr @_ZL11g_mallinfo2, align 8
  %8 = icmp ne ptr %7, null
  br i1 %8, label %9, label %52

9:                                                ; preds = %2
  %10 = load ptr, ptr @_ZL11g_mallinfo2, align 8
  call void %10(ptr dead_on_unwind writable sret(%struct.new_mallinfo) align 8 %5)
  %11 = getelementptr inbounds %struct.new_mallinfo, ptr %5, i32 0, i32 0
  %12 = load i64, ptr %11, align 8
  %13 = load ptr, ptr %3, align 8
  %14 = getelementptr inbounds %"struct.os::Linux::glibc_mallinfo", ptr %13, i32 0, i32 0
  store i64 %12, ptr %14, align 8
  %15 = getelementptr inbounds %struct.new_mallinfo, ptr %5, i32 0, i32 1
  %16 = load i64, ptr %15, align 8
  %17 = load ptr, ptr %3, align 8
  %18 = getelementptr inbounds %"struct.os::Linux::glibc_mallinfo", ptr %17, i32 0, i32 1
  store i64 %16, ptr %18, align 8
  %19 = getelementptr inbounds %struct.new_mallinfo, ptr %5, i32 0, i32 2
  %20 = load i64, ptr %19, align 8
  %21 = load ptr, ptr %3, align 8
  %22 = getelementptr inbounds %"struct.os::Linux::glibc_mallinfo", ptr %21, i32 0, i32 2
  store i64 %20, ptr %22, align 8
  %23 = getelementptr inbounds %struct.new_mallinfo, ptr %5, i32 0, i32 3
  %24 = load i64, ptr %23, align 8
  %25 = load ptr, ptr %3, align 8
  %26 = getelementptr inbounds %"struct.os::Linux::glibc_mallinfo", ptr %25, i32 0, i32 3
  store i64 %24, ptr %26, align 8
  %27 = getelementptr inbounds %struct.new_mallinfo, ptr %5, i32 0, i32 4
  %28 = load i64, ptr %27, align 8
  %29 = load ptr, ptr %3, align 8
  %30 = getelementptr inbounds %"struct.os::Linux::glibc_mallinfo", ptr %29, i32 0, i32 4
  store i64 %28, ptr %30, align 8
  %31 = getelementptr inbounds %struct.new_mallinfo, ptr %5, i32 0, i32 5
  %32 = load i64, ptr %31, align 8
  %33 = load ptr, ptr %3, align 8
  %34 = getelementptr inbounds %"struct.os::Linux::glibc_mallinfo", ptr %33, i32 0, i32 5
  store i64 %32, ptr %34, align 8
  %35 = getelementptr inbounds %struct.new_mallinfo, ptr %5, i32 0, i32 6
  %36 = load i64, ptr %35, align 8
  %37 = load ptr, ptr %3, align 8
  %38 = getelementptr inbounds %"struct.os::Linux::glibc_mallinfo", ptr %37, i32 0, i32 6
  store i64 %36, ptr %38, align 8
  %39 = getelementptr inbounds %struct.new_mallinfo, ptr %5, i32 0, i32 7
  %40 = load i64, ptr %39, align 8
  %41 = load ptr, ptr %3, align 8
  %42 = getelementptr inbounds %"struct.os::Linux::glibc_mallinfo", ptr %41, i32 0, i32 7
  store i64 %40, ptr %42, align 8
  %43 = getelementptr inbounds %struct.new_mallinfo, ptr %5, i32 0, i32 8
  %44 = load i64, ptr %43, align 8
  %45 = load ptr, ptr %3, align 8
  %46 = getelementptr inbounds %"struct.os::Linux::glibc_mallinfo", ptr %45, i32 0, i32 8
  store i64 %44, ptr %46, align 8
  %47 = getelementptr inbounds %struct.new_mallinfo, ptr %5, i32 0, i32 9
  %48 = load i64, ptr %47, align 8
  %49 = load ptr, ptr %3, align 8
  %50 = getelementptr inbounds %"struct.os::Linux::glibc_mallinfo", ptr %49, i32 0, i32 9
  store i64 %48, ptr %50, align 8
  %51 = load ptr, ptr %4, align 8
  store i8 0, ptr %51, align 1
  br label %113

52:                                               ; preds = %2
  %53 = load ptr, ptr @_ZL10g_mallinfo, align 8
  %54 = icmp ne ptr %53, null
  br i1 %54, label %55, label %108

55:                                               ; preds = %52
  %56 = load ptr, ptr @_ZL10g_mallinfo, align 8
  call void %56(ptr dead_on_unwind writable sret(%struct.old_mallinfo) align 4 %6)
  %57 = getelementptr inbounds %struct.old_mallinfo, ptr %6, i32 0, i32 0
  %58 = load i32, ptr %57, align 4
  %59 = zext i32 %58 to i64
  %60 = load ptr, ptr %3, align 8
  %61 = getelementptr inbounds %"struct.os::Linux::glibc_mallinfo", ptr %60, i32 0, i32 0
  store i64 %59, ptr %61, align 8
  %62 = getelementptr inbounds %struct.old_mallinfo, ptr %6, i32 0, i32 1
  %63 = load i32, ptr %62, align 4
  %64 = zext i32 %63 to i64
  %65 = load ptr, ptr %3, align 8
  %66 = getelementptr inbounds %"struct.os::Linux::glibc_mallinfo", ptr %65, i32 0, i32 1
  store i64 %64, ptr %66, align 8
  %67 = getelementptr inbounds %struct.old_mallinfo, ptr %6, i32 0, i32 2
  %68 = load i32, ptr %67, align 4
  %69 = zext i32 %68 to i64
  %70 = load ptr, ptr %3, align 8
  %71 = getelementptr inbounds %"struct.os::Linux::glibc_mallinfo", ptr %70, i32 0, i32 2
  store i64 %69, ptr %71, align 8
  %72 = getelementptr inbounds %struct.old_mallinfo, ptr %6, i32 0, i32 3
  %73 = load i32, ptr %72, align 4
  %74 = zext i32 %73 to i64
  %75 = load ptr, ptr %3, align 8
  %76 = getelementptr inbounds %"struct.os::Linux::glibc_mallinfo", ptr %75, i32 0, i32 3
  store i64 %74, ptr %76, align 8
  %77 = getelementptr inbounds %struct.old_mallinfo, ptr %6, i32 0, i32 4
  %78 = load i32, ptr %77, align 4
  %79 = zext i32 %78 to i64
  %80 = load ptr, ptr %3, align 8
  %81 = getelementptr inbounds %"struct.os::Linux::glibc_mallinfo", ptr %80, i32 0, i32 4
  store i64 %79, ptr %81, align 8
  %82 = getelementptr inbounds %struct.old_mallinfo, ptr %6, i32 0, i32 5
  %83 = load i32, ptr %82, align 4
  %84 = zext i32 %83 to i64
  %85 = load ptr, ptr %3, align 8
  %86 = getelementptr inbounds %"struct.os::Linux::glibc_mallinfo", ptr %85, i32 0, i32 5
  store i64 %84, ptr %86, align 8
  %87 = getelementptr inbounds %struct.old_mallinfo, ptr %6, i32 0, i32 6
  %88 = load i32, ptr %87, align 4
  %89 = zext i32 %88 to i64
  %90 = load ptr, ptr %3, align 8
  %91 = getelementptr inbounds %"struct.os::Linux::glibc_mallinfo", ptr %90, i32 0, i32 6
  store i64 %89, ptr %91, align 8
  %92 = getelementptr inbounds %struct.old_mallinfo, ptr %6, i32 0, i32 7
  %93 = load i32, ptr %92, align 4
  %94 = zext i32 %93 to i64
  %95 = load ptr, ptr %3, align 8
  %96 = getelementptr inbounds %"struct.os::Linux::glibc_mallinfo", ptr %95, i32 0, i32 7
  store i64 %94, ptr %96, align 8
  %97 = getelementptr inbounds %struct.old_mallinfo, ptr %6, i32 0, i32 8
  %98 = load i32, ptr %97, align 4
  %99 = zext i32 %98 to i64
  %100 = load ptr, ptr %3, align 8
  %101 = getelementptr inbounds %"struct.os::Linux::glibc_mallinfo", ptr %100, i32 0, i32 8
  store i64 %99, ptr %101, align 8
  %102 = getelementptr inbounds %struct.old_mallinfo, ptr %6, i32 0, i32 9
  %103 = load i32, ptr %102, align 4
  %104 = zext i32 %103 to i64
  %105 = load ptr, ptr %3, align 8
  %106 = getelementptr inbounds %"struct.os::Linux::glibc_mallinfo", ptr %105, i32 0, i32 9
  store i64 %104, ptr %106, align 8
  %107 = load ptr, ptr %4, align 8
  store i8 1, ptr %107, align 1
  br label %112

108:                                              ; preds = %52
  br label %109

109:                                              ; preds = %108
  %110 = load ptr, ptr @g_assert_poison, align 8
  store i8 88, ptr %110, align 1
  call void @_Z28report_should_not_reach_herePKci(ptr noundef @.str.186, i32 noundef 5472) #15
  unreachable

111:                                              ; No predecessors!
  br label %112

112:                                              ; preds = %111, %55
  br label %113

113:                                              ; preds = %112, %9
  ret void
}