; Function Attrs: mustprogress nounwind uwtable
define hidden void @_ZN2os5Linux12get_mallinfoEPNS0_14glibc_mallinfoEPb(ptr nocapture noundef writeonly %0, ptr nocapture noundef writeonly %1) local_unnamed_addr #0 align 2 {
  %3 = alloca %struct.new_mallinfo, align 16
  %4 = alloca %struct.old_mallinfo, align 8
  %5 = load ptr, ptr @_ZL11g_mallinfo2, align 8
  %.not = icmp eq ptr %5, null
  br i1 %.not, label %22, label %6

6:                                                ; preds = %2
  call void %5(ptr dead_on_unwind nonnull writable sret(%struct.new_mallinfo) align 8 %3) #26
  %7 = load <2 x i64>, ptr %3, align 16
  store <2 x i64> %7, ptr %0, align 8
  %8 = getelementptr inbounds i8, ptr %3, i64 16
  %9 = getelementptr inbounds i8, ptr %0, i64 16
  %10 = load <2 x i64>, ptr %8, align 16
  store <2 x i64> %10, ptr %9, align 8
  %11 = getelementptr inbounds i8, ptr %3, i64 32
  %12 = getelementptr inbounds i8, ptr %0, i64 32
  %13 = load <2 x i64>, ptr %11, align 16
  store <2 x i64> %13, ptr %12, align 8
  %14 = getelementptr inbounds i8, ptr %3, i64 48
  %15 = getelementptr inbounds i8, ptr %0, i64 48
  %16 = load <2 x i64>, ptr %14, align 16
  store <2 x i64> %16, ptr %15, align 8
  %17 = getelementptr inbounds i8, ptr %3, i64 64
  %18 = load i64, ptr %17, align 16
  %19 = getelementptr inbounds i8, ptr %0, i64 64
  store i64 %18, ptr %19, align 8
  %20 = getelementptr inbounds i8, ptr %3, i64 72
  %21 = load i64, ptr %20, align 8
  br label %48

22:                                               ; preds = %2
  %23 = load ptr, ptr @_ZL10g_mallinfo, align 8
  %.not23 = icmp eq ptr %23, null
  br i1 %.not23, label %46, label %24

24:                                               ; preds = %22
  call void %23(ptr dead_on_unwind nonnull writable sret(%struct.old_mallinfo) align 4 %4) #26
  %25 = load <2 x i32>, ptr %4, align 8
  %26 = zext <2 x i32> %25 to <2 x i64>
  store <2 x i64> %26, ptr %0, align 8
  %27 = getelementptr inbounds i8, ptr %4, i64 8
  %28 = getelementptr inbounds i8, ptr %0, i64 16
  %29 = load <2 x i32>, ptr %27, align 8
  %30 = zext <2 x i32> %29 to <2 x i64>
  store <2 x i64> %30, ptr %28, align 8
  %31 = getelementptr inbounds i8, ptr %4, i64 16
  %32 = getelementptr inbounds i8, ptr %0, i64 32
  %33 = load <2 x i32>, ptr %31, align 8
  %34 = zext <2 x i32> %33 to <2 x i64>
  store <2 x i64> %34, ptr %32, align 8
  %35 = getelementptr inbounds i8, ptr %4, i64 24
  %36 = getelementptr inbounds i8, ptr %0, i64 48
  %37 = load <2 x i32>, ptr %35, align 8
  %38 = zext <2 x i32> %37 to <2 x i64>
  store <2 x i64> %38, ptr %36, align 8
  %39 = getelementptr inbounds i8, ptr %4, i64 32
  %40 = load i32, ptr %39, align 8
  %41 = zext i32 %40 to i64
  %42 = getelementptr inbounds i8, ptr %0, i64 64
  store i64 %41, ptr %42, align 8
  %43 = getelementptr inbounds i8, ptr %4, i64 36
  %44 = load i32, ptr %43, align 4
  %45 = zext i32 %44 to i64
  br label %48

46:                                               ; preds = %22
  %47 = load ptr, ptr @g_assert_poison, align 8
  store i8 88, ptr %47, align 1
  tail call void @_Z28report_should_not_reach_herePKci(ptr noundef nonnull @.str.186, i32 noundef 5472) #29
  unreachable

48:                                               ; preds = %24, %6
  %.sink = phi i64 [ %45, %24 ], [ %21, %6 ]
  %storemerge = phi i8 [ 1, %24 ], [ 0, %6 ]
  %49 = getelementptr inbounds i8, ptr %0, i64 72
  store i64 %.sink, ptr %49, align 8
  store i8 %storemerge, ptr %1, align 1
  ret void
}